; ModuleID = '53/688.c'
source_filename = "53/688.c"
target datalayout = "e-m:e-p270:32:32-p271:32:32-p272:64:64-i64:64-f80:128-n8:16:32:64-S128"
target triple = "x86_64-pc-linux-gnu"

@.str = private unnamed_addr constant [3 x i8] c"%d\00", align 1
@.str.1 = private unnamed_addr constant [4 x i8] c",%d\00", align 1

; Function Attrs: noinline nounwind uwtable
define dso_local void @main() #0 {
  %1 = alloca i32, align 4
  %2 = alloca i32*, align 8
  %3 = alloca i32, align 4
  %4 = alloca i32, align 4
  %5 = alloca [500 x i32], align 16
  store i32 0, i32* %3, align 4
  %6 = call i32 (i8*, ...) @__isoc99_scanf(i8* getelementptr inbounds ([3 x i8], [3 x i8]* @.str, i64 0, i64 0), i32* %1)
  store i32 1, i32* %4, align 4
  br label %7

7:                                                ; preds = %16, %0
  %8 = load i32, i32* %4, align 4
  %9 = load i32, i32* %1, align 4
  %10 = icmp sle i32 %8, %9
  br i1 %10, label %11, label %19

11:                                               ; preds = %7
  %12 = load i32, i32* %4, align 4
  %13 = sext i32 %12 to i64
  %14 = getelementptr inbounds [500 x i32], [500 x i32]* %5, i64 0, i64 %13
  %15 = call i32 (i8*, ...) @__isoc99_scanf(i8* getelementptr inbounds ([3 x i8], [3 x i8]* @.str, i64 0, i64 0), i32* %14)
  br label %16

16:                                               ; preds = %11
  %17 = load i32, i32* %4, align 4
  %18 = add nsw i32 %17, 1
  store i32 %18, i32* %4, align 4
  br label %7

19:                                               ; preds = %7
  %20 = getelementptr inbounds [500 x i32], [500 x i32]* %5, i64 0, i64 1
  %21 = load i32, i32* %20, align 4
  %22 = call i32 (i8*, ...) @printf(i8* getelementptr inbounds ([3 x i8], [3 x i8]* @.str, i64 0, i64 0), i32 %21)
  store i32 2, i32* %4, align 4
  br label %23

23:                                               ; preds = %68, %19
  %24 = load i32, i32* %4, align 4
  %25 = load i32, i32* %1, align 4
  %26 = icmp sle i32 %24, %25
  br i1 %26, label %27, label %71

27:                                               ; preds = %23
  store i32 0, i32* %3, align 4
  %28 = getelementptr inbounds [500 x i32], [500 x i32]* %5, i64 0, i64 0
  store i32* %28, i32** %2, align 8
  br label %29

29:                                               ; preds = %55, %27
  %30 = load i32*, i32** %2, align 8
  %31 = getelementptr inbounds [500 x i32], [500 x i32]* %5, i64 0, i64 0
  %32 = load i32, i32* %4, align 4
  %33 = sext i32 %32 to i64
  %34 = getelementptr inbounds i32, i32* %31, i64 %33
  %35 = getelementptr inbounds i32, i32* %34, i64 -1
  %36 = icmp ule i32* %30, %35
  br i1 %36, label %37, label %58

37:                                               ; preds = %29
  %38 = load i32, i32* %4, align 4
  %39 = sext i32 %38 to i64
  %40 = getelementptr inbounds [500 x i32], [500 x i32]* %5, i64 0, i64 %39
  %41 = load i32, i32* %40, align 4
  %42 = load i32*, i32** %2, align 8
  %43 = load i32, i32* %42, align 4
  %44 = icmp eq i32 %41, %43
  br i1 %44, label %53, label %45

45:                                               ; preds = %37
  %46 = load i32, i32* %4, align 4
  %47 = sext i32 %46 to i64
  %48 = getelementptr inbounds [500 x i32], [500 x i32]* %5, i64 0, i64 %47
  %49 = load i32, i32* %48, align 4
  %50 = getelementptr inbounds [500 x i32], [500 x i32]* %5, i64 0, i64 1
  %51 = load i32, i32* %50, align 4
  %52 = icmp eq i32 %49, %51
  br i1 %52, label %53, label %54

53:                                               ; preds = %45, %37
  store i32 1, i32* %3, align 4
  br label %54

54:                                               ; preds = %53, %45
  br label %55

55:                                               ; preds = %54
  %56 = load i32*, i32** %2, align 8
  %57 = getelementptr inbounds i32, i32* %56, i32 1
  store i32* %57, i32** %2, align 8
  br label %29

58:                                               ; preds = %29
  %59 = load i32, i32* %3, align 4
  %60 = icmp ne i32 %59, 1
  br i1 %60, label %61, label %67

61:                                               ; preds = %58
  %62 = load i32, i32* %4, align 4
  %63 = sext i32 %62 to i64
  %64 = getelementptr inbounds [500 x i32], [500 x i32]* %5, i64 0, i64 %63
  %65 = load i32, i32* %64, align 4
  %66 = call i32 (i8*, ...) @printf(i8* getelementptr inbounds ([4 x i8], [4 x i8]* @.str.1, i64 0, i64 0), i32 %65)
  br label %67

67:                                               ; preds = %61, %58
  br label %68

68:                                               ; preds = %67
  %69 = load i32, i32* %4, align 4
  %70 = add nsw i32 %69, 1
  store i32 %70, i32* %4, align 4
  br label %23

71:                                               ; preds = %23
  ret void
}

declare dso_local i32 @__isoc99_scanf(i8*, ...) #1

declare dso_local i32 @printf(i8*, ...) #1


!llvm.module.flags = !{!0}
!llvm.ident = !{!1}

!0 = !{i32 1, !"wchar_size", i32 4}
!1 = !{!"clang version 10.0.0-4ubuntu1 "}
