; ModuleID = 'source-C-CXX/52/688.c'
source_filename = "source-C-CXX/52/688.c"
target datalayout = "e-m:e-p270:32:32-p271:32:32-p272:64:64-i64:64-f80:128-n8:16:32:64-S128"
target triple = "x86_64-pc-linux-gnu"

@.str = private unnamed_addr constant [3 x i8] c"%d\00", align 1
@.str.1 = private unnamed_addr constant [4 x i8] c",%d\00", align 1

; Function Attrs: nofree nounwind sspstrong uwtable
define dso_local void @main() local_unnamed_addr #0 {
  %1 = alloca i32, align 4
  %2 = alloca [500 x i32], align 16
  %3 = bitcast i32* %1 to i8*
  call void @llvm.lifetime.start.p0i8(i64 4, i8* nonnull %3) #3
  %4 = bitcast [500 x i32]* %2 to i8*
  call void @llvm.lifetime.start.p0i8(i64 2000, i8* nonnull %4) #3
  %5 = call i32 (i8*, ...) @__isoc99_scanf(i8* getelementptr inbounds ([3 x i8], [3 x i8]* @.str, i64 0, i64 0), i32* nonnull %1)
  %6 = load i32, i32* %1, align 4, !tbaa !5
  %7 = icmp slt i32 %6, 1
  br i1 %7, label %19, label %8

8:                                                ; preds = %0, %8
  %9 = phi i64 [ %12, %8 ], [ 1, %0 ]
  %10 = getelementptr inbounds [500 x i32], [500 x i32]* %2, i64 0, i64 %9
  %11 = call i32 (i8*, ...) @__isoc99_scanf(i8* getelementptr inbounds ([3 x i8], [3 x i8]* @.str, i64 0, i64 0), i32* nonnull %10)
  %12 = add nuw nsw i64 %9, 1
  %13 = load i32, i32* %1, align 4, !tbaa !5
  %14 = sext i32 %13 to i64
  %15 = icmp slt i64 %9, %14
  br i1 %15, label %8, label %16, !llvm.loop !9

16:                                               ; preds = %8
  %17 = getelementptr inbounds [500 x i32], [500 x i32]* %2, i64 0, i64 1
  %18 = load i32, i32* %17, align 4, !tbaa !5
  br label %19

19:                                               ; preds = %16, %0
  %20 = phi i32 [ %18, %16 ], [ undef, %0 ]
  %21 = getelementptr inbounds [500 x i32], [500 x i32]* %2, i64 0, i64 1
  %22 = call i32 (i8*, ...) @printf(i8* nonnull dereferenceable(1) getelementptr inbounds ([3 x i8], [3 x i8]* @.str, i64 0, i64 0), i32 %20)
  %23 = getelementptr inbounds [500 x i32], [500 x i32]* %2, i64 0, i64 0
  %24 = load i32, i32* %1, align 4, !tbaa !5
  %25 = icmp slt i32 %24, 2
  br i1 %25, label %56, label %26

26:                                               ; preds = %19, %51
  %27 = phi i32 [ %52, %51 ], [ %24, %19 ]
  %28 = phi i64 [ %53, %51 ], [ 2, %19 ]
  %29 = getelementptr inbounds [500 x i32], [500 x i32]* %2, i64 0, i64 %28
  %30 = getelementptr inbounds i32, i32* %29, i64 -1
  %31 = icmp ugt i32* %23, %30
  br i1 %31, label %47, label %32

32:                                               ; preds = %26
  %33 = load i32, i32* %21, align 4
  %34 = load i32, i32* %29, align 4, !tbaa !5
  %35 = icmp eq i32 %34, %33
  br label %36

36:                                               ; preds = %32, %36
  %37 = phi i32 [ 0, %32 ], [ %42, %36 ]
  %38 = phi i32* [ %23, %32 ], [ %43, %36 ]
  %39 = load i32, i32* %38, align 4, !tbaa !5
  %40 = icmp eq i32 %34, %39
  %41 = select i1 %40, i1 true, i1 %35
  %42 = select i1 %41, i32 1, i32 %37
  %43 = getelementptr inbounds i32, i32* %38, i64 1
  %44 = icmp ugt i32* %43, %30
  br i1 %44, label %45, label %36, !llvm.loop !11

45:                                               ; preds = %36
  %46 = icmp eq i32 %42, 1
  br i1 %46, label %51, label %47

47:                                               ; preds = %26, %45
  %48 = load i32, i32* %29, align 4, !tbaa !5
  %49 = call i32 (i8*, ...) @printf(i8* nonnull dereferenceable(1) getelementptr inbounds ([4 x i8], [4 x i8]* @.str.1, i64 0, i64 0), i32 %48)
  %50 = load i32, i32* %1, align 4, !tbaa !5
  br label %51

51:                                               ; preds = %45, %47
  %52 = phi i32 [ %27, %45 ], [ %50, %47 ]
  %53 = add nuw nsw i64 %28, 1
  %54 = sext i32 %52 to i64
  %55 = icmp slt i64 %28, %54
  br i1 %55, label %26, label %56, !llvm.loop !12

56:                                               ; preds = %51, %19
  call void @llvm.lifetime.end.p0i8(i64 2000, i8* nonnull %4) #3
  call void @llvm.lifetime.end.p0i8(i64 4, i8* nonnull %3) #3
  ret void
}

; Function Attrs: argmemonly mustprogress nofree nosync nounwind willreturn
declare void @llvm.lifetime.start.p0i8(i64 immarg, i8* nocapture) #1

; Function Attrs: nofree nounwind
declare noundef i32 @__isoc99_scanf(i8* nocapture noundef readonly, ...) local_unnamed_addr #2

; Function Attrs: nofree nounwind
declare noundef i32 @printf(i8* nocapture noundef readonly, ...) local_unnamed_addr #2

; Function Attrs: argmemonly mustprogress nofree nosync nounwind willreturn
declare void @llvm.lifetime.end.p0i8(i64 immarg, i8* nocapture) #1


!llvm.module.flags = !{!0, !1, !2, !3}
!llvm.ident = !{!4}

!0 = !{i32 1, !"wchar_size", i32 4}
!1 = !{i32 7, !"PIC Level", i32 2}
!2 = !{i32 7, !"PIE Level", i32 2}
!3 = !{i32 7, !"uwtable", i32 1}
!4 = !{!"clang version 13.0.0"}
!5 = !{!6, !6, i64 0}
!6 = !{!"int", !7, i64 0}
!7 = !{!"omnipotent char", !8, i64 0}
!8 = !{!"Simple C/C++ TBAA"}
!9 = distinct !{!9, !10}
!10 = !{!"llvm.loop.mustprogress"}
!11 = distinct !{!11, !10}
!12 = distinct !{!12, !10}
